; Function Attrs: mustprogress uwtable
define void @_ZN32pxrInternal_v0_24__pxrReserved__7TfDebug21SetDebugSymbolsByNameERKNSt7__cxx1112basic_stringIcSt11char_traitsIcESaIcEEEb(ptr dead_on_unwind noalias writable sret(%"class.std::vector") align 8 %0, ptr noundef nonnull align 8 dereferenceable(32) %1, i1 noundef zeroext %2) local_unnamed_addr #0 align 2 personality ptr @__gxx_personality_v0 {
  %4 = alloca %"class.std::__cxx11::basic_string", align 8
  %5 = alloca %"class.std::__cxx11::basic_string", align 8
  %6 = alloca %"class.std::allocator.15", align 1
  tail call void @llvm.memset.p0.i64(ptr noundef nonnull align 8 dereferenceable(24) %0, i8 0, i64 24, i1 false)
  %7 = load atomic i64, ptr @_ZN32pxrInternal_v0_24__pxrReserved__11TfSingletonINS_22Tf_DebugSymbolRegistryEE9_instanceE seq_cst, align 8
  %.0.i.i.i = inttoptr i64 %7 to ptr
  %.not.i.i = icmp eq i64 %7, 0
  br i1 %.not.i.i, label %8, label %_ZN32pxrInternal_v0_24__pxrReserved__22Tf_DebugSymbolRegistry12_GetInstanceEv.exit

8:                                                ; preds = %3
  %9 = invoke noundef ptr @_ZN32pxrInternal_v0_24__pxrReserved__11TfSingletonINS_22Tf_DebugSymbolRegistryEE15_CreateInstanceERSt6atomicIPS1_E(ptr noundef nonnull align 8 dereferenceable(8) @_ZN32pxrInternal_v0_24__pxrReserved__11TfSingletonINS_22Tf_DebugSymbolRegistryEE9_instanceE)
          to label %_ZN32pxrInternal_v0_24__pxrReserved__22Tf_DebugSymbolRegistry12_GetInstanceEv.exit unwind label %19

_ZN32pxrInternal_v0_24__pxrReserved__22Tf_DebugSymbolRegistry12_GetInstanceEv.exit: ; preds = %3, %8
  %.0.i.i = phi ptr [ %.0.i.i.i, %3 ], [ %9, %8 ]
  %10 = select i1 %2, ptr @.str.8, ptr @.str.9
  call void @_ZNSaIcEC1Ev(ptr noundef nonnull align 1 dereferenceable(1) %6) #12
  %11 = invoke noundef ptr @_ZNSt7__cxx1112basic_stringIcSt11char_traitsIcESaIcEE13_M_local_dataEv(ptr noundef nonnull align 8 dereferenceable(32) %5)
          to label %.noexc10 unwind label %21

.noexc10:                                         ; preds = %_ZN32pxrInternal_v0_24__pxrReserved__22Tf_DebugSymbolRegistry12_GetInstanceEv.exit
  invoke void @_ZNSt7__cxx1112basic_stringIcSt11char_traitsIcESaIcEE12_Alloc_hiderC1EPcRKS3_(ptr noundef nonnull align 8 dereferenceable(8) %5, ptr noundef %11, ptr noundef nonnull align 1 dereferenceable(1) %6)
          to label %.noexc11 unwind label %21

.noexc11:                                         ; preds = %.noexc10
  %not. = xor i1 %2, true
  %12 = zext i1 %not. to i64
  %13 = getelementptr inbounds i8, ptr %10, i64 %12
  invoke void @_ZNSt7__cxx1112basic_stringIcSt11char_traitsIcESaIcEE12_M_constructIPKcEEvT_S8_St20forward_iterator_tag(ptr noundef nonnull align 8 dereferenceable(32) %5, ptr noundef nonnull %10, ptr noundef nonnull %13)
          to label %_ZNSt7__cxx1112basic_stringIcSt11char_traitsIcESaIcEEC2IS3_EEPKcRKS3_.exit unwind label %14

14:                                               ; preds = %.noexc11
  %15 = landingpad { ptr, i32 }
          cleanup
  call void @_ZNSaIcED2Ev(ptr noundef nonnull align 1 dereferenceable(1) %5) #12
  br label %.body

_ZNSt7__cxx1112basic_stringIcSt11char_traitsIcESaIcEEC2IS3_EEPKcRKS3_.exit: ; preds = %.noexc11
  %16 = invoke noundef nonnull align 8 dereferenceable(32) ptr @_ZNSt7__cxx1112basic_stringIcSt11char_traitsIcESaIcEE6appendERKS4_(ptr noundef nonnull align 8 dereferenceable(32) %5, ptr noundef nonnull align 8 dereferenceable(32) %1)
          to label %17 unwind label %23

17:                                               ; preds = %_ZNSt7__cxx1112basic_stringIcSt11char_traitsIcESaIcEEC2IS3_EEPKcRKS3_.exit
  call void @_ZNSt7__cxx1112basic_stringIcSt11char_traitsIcESaIcEEC1EOS4_(ptr noundef nonnull align 8 dereferenceable(32) %4, ptr noundef nonnull align 8 dereferenceable(32) %16) #12
  invoke void @_ZN32pxrInternal_v0_24__pxrReserved__22Tf_DebugSymbolRegistry13_SetByPatternENSt7__cxx1112basic_stringIcSt11char_traitsIcESaIcEEEPSt6vectorIS6_SaIS6_EE(ptr noundef nonnull align 8 dereferenceable(176) %.0.i.i, ptr noundef nonnull %4, ptr noundef nonnull %0)
          to label %18 unwind label %25

18:                                               ; preds = %17
  call void @_ZNSt7__cxx1112basic_stringIcSt11char_traitsIcESaIcEED1Ev(ptr noundef nonnull align 8 dereferenceable(32) %4) #12
  call void @_ZNSt7__cxx1112basic_stringIcSt11char_traitsIcESaIcEED1Ev(ptr noundef nonnull align 8 dereferenceable(32) %5) #12
  call void @_ZNSaIcED1Ev(ptr noundef nonnull align 1 dereferenceable(1) %6) #12
  ret void

19:                                               ; preds = %8
  %20 = landingpad { ptr, i32 }
          cleanup
  br label %28

21:                                               ; preds = %.noexc10, %_ZN32pxrInternal_v0_24__pxrReserved__22Tf_DebugSymbolRegistry12_GetInstanceEv.exit
  %22 = landingpad { ptr, i32 }
          cleanup
  br label %.body

23:                                               ; preds = %_ZNSt7__cxx1112basic_stringIcSt11char_traitsIcESaIcEEC2IS3_EEPKcRKS3_.exit
  %24 = landingpad { ptr, i32 }
          cleanup
  br label %27

25:                                               ; preds = %17
  %26 = landingpad { ptr, i32 }
          cleanup
  call void @_ZNSt7__cxx1112basic_stringIcSt11char_traitsIcESaIcEED1Ev(ptr noundef nonnull align 8 dereferenceable(32) %4) #12
  br label %27

27:                                               ; preds = %25, %23
  %.pn = phi { ptr, i32 } [ %26, %25 ], [ %24, %23 ]
  call void @_ZNSt7__cxx1112basic_stringIcSt11char_traitsIcESaIcEED1Ev(ptr noundef nonnull align 8 dereferenceable(32) %5) #12
  br label %.body

.body:                                            ; preds = %21, %14, %27
  %.pn.pn = phi { ptr, i32 } [ %.pn, %27 ], [ %22, %21 ], [ %15, %14 ]
  call void @_ZNSaIcED1Ev(ptr noundef nonnull align 1 dereferenceable(1) %6) #12
  br label %28

28:                                               ; preds = %.body, %19
  %.pn.pn.pn = phi { ptr, i32 } [ %.pn.pn, %.body ], [ %20, %19 ]
  call void @_ZNSt6vectorINSt7__cxx1112basic_stringIcSt11char_traitsIcESaIcEEESaIS5_EED2Ev(ptr noundef nonnull align 8 dereferenceable(24) %0) #12
  resume { ptr, i32 } %.pn.pn.pn
}